target datalayout = "e-m:e-p270:32:32-p271:32:32-p272:64:64-i64:64-i128:128-f80:128-n8:16:32:64-S128"
target triple = "x86_64-pc-linux-gnu"

@hf_gsm_sms_tp_mti_down = internal global i32 0, align 4
@hf_gsm_sms_tp_mms = internal global i32 0, align 4
@hf_gsm_sms_tp_lp = internal global i32 0, align 4
@hf_gsm_sms_tp_sri = internal global i32 0, align 4
@hf_gsm_sms_tp_udhi = internal global i32 0, align 4
@hf_gsm_sms_tp_rp = internal global i32 0, align 4
@hf_gsm_sms_tp_user_data_length = internal global i32 0, align 4
@.str.619 = private unnamed_addr constant [23 x i8] c"TP-Originating-Address\00", align 1
@.str.620 = private unnamed_addr constant [8 x i8] c"(%d) %s\00", align 1
@.str.621 = private unnamed_addr constant [30 x i8] c"depends on Data-Coding-Scheme\00", align 1
@.str.622 = private unnamed_addr constant [13 x i8] c"no User-Data\00", align 1

; Function Attrs: null_pointer_is_valid sspstrong uwtable
define internal void @dis_msg_deliver(ptr noundef %0, ptr noundef %1, ptr noundef %2, i32 noundef %3, ptr noundef %4) #0 {
  %6 = alloca ptr, align 8
  %7 = alloca ptr, align 8
  %8 = alloca ptr, align 8
  %9 = alloca i32, align 4
  %10 = alloca ptr, align 8
  %11 = alloca i32, align 4
  %12 = alloca i32, align 4
  %13 = alloca i8, align 1
  %14 = alloca i8, align 1
  %15 = alloca i32, align 4
  %16 = alloca i8, align 1
  %17 = alloca i8, align 1
  store ptr %0, ptr %6, align 8
  store ptr %1, ptr %7, align 8
  store ptr %2, ptr %8, align 8
  store i32 %3, ptr %9, align 4
  store ptr %4, ptr %10, align 8
  call void @llvm.lifetime.start.p0(i64 4, ptr %11) #13
  call void @llvm.lifetime.start.p0(i64 4, ptr %12) #13
  call void @llvm.lifetime.start.p0(i64 1, ptr %13) #13
  call void @llvm.lifetime.start.p0(i64 1, ptr %14) #13
  call void @llvm.lifetime.start.p0(i64 4, ptr %15) #13
  call void @llvm.lifetime.start.p0(i64 1, ptr %16) #13
  call void @llvm.lifetime.start.p0(i64 1, ptr %17) #13
  %18 = load i32, ptr %9, align 4
  store i32 %18, ptr %11, align 4
  %19 = load ptr, ptr %6, align 8
  %20 = load i32, ptr %9, align 4
  %21 = call i32 @tvb_reported_length_remaining(ptr noundef %19, i32 noundef %20)
  store i32 %21, ptr %12, align 4
  %22 = load ptr, ptr %6, align 8
  %23 = load i32, ptr %9, align 4
  %24 = call zeroext i8 @tvb_get_uint8(ptr noundef %22, i32 noundef %23)
  store i8 %24, ptr %13, align 1
  %25 = load i8, ptr %13, align 1
  %26 = zext i8 %25 to i32
  %27 = and i32 %26, 64
  %28 = icmp ne i32 %27, 0
  %29 = zext i1 %28 to i8
  store i8 %29, ptr %17, align 1
  %30 = load ptr, ptr %8, align 8
  %31 = load i32, ptr @hf_gsm_sms_tp_rp, align 4
  %32 = load ptr, ptr %6, align 8
  %33 = load i32, ptr %9, align 4
  %34 = call ptr @proto_tree_add_item(ptr noundef %30, i32 noundef %31, ptr noundef %32, i32 noundef %33, i32 noundef 1, i32 noundef 0)
  %35 = load ptr, ptr %8, align 8
  %36 = load i32, ptr @hf_gsm_sms_tp_udhi, align 4
  %37 = load ptr, ptr %6, align 8
  %38 = load i32, ptr %9, align 4
  %39 = call ptr @proto_tree_add_item(ptr noundef %35, i32 noundef %36, ptr noundef %37, i32 noundef %38, i32 noundef 1, i32 noundef 0)
  %40 = load ptr, ptr %8, align 8
  %41 = load i32, ptr @hf_gsm_sms_tp_sri, align 4
  %42 = load ptr, ptr %6, align 8
  %43 = load i32, ptr %9, align 4
  %44 = call ptr @proto_tree_add_item(ptr noundef %40, i32 noundef %41, ptr noundef %42, i32 noundef %43, i32 noundef 1, i32 noundef 0)
  %45 = load ptr, ptr %8, align 8
  %46 = load i32, ptr @hf_gsm_sms_tp_lp, align 4
  %47 = load ptr, ptr %6, align 8
  %48 = load i32, ptr %9, align 4
  %49 = call ptr @proto_tree_add_item(ptr noundef %45, i32 noundef %46, ptr noundef %47, i32 noundef %48, i32 noundef 1, i32 noundef 0)
  %50 = load ptr, ptr %8, align 8
  %51 = load i32, ptr @hf_gsm_sms_tp_mms, align 4
  %52 = load ptr, ptr %6, align 8
  %53 = load i32, ptr %9, align 4
  %54 = call ptr @proto_tree_add_item(ptr noundef %50, i32 noundef %51, ptr noundef %52, i32 noundef %53, i32 noundef 1, i32 noundef 0)
  %55 = load ptr, ptr %8, align 8
  %56 = load i32, ptr @hf_gsm_sms_tp_mti_down, align 4
  %57 = load ptr, ptr %6, align 8
  %58 = load i32, ptr %9, align 4
  %59 = call ptr @proto_tree_add_item(ptr noundef %55, i32 noundef %56, ptr noundef %57, i32 noundef %58, i32 noundef 1, i32 noundef 0)
  %60 = load i32, ptr %9, align 4
  %61 = add i32 %60, 1
  store i32 %61, ptr %9, align 4
  %62 = load ptr, ptr %6, align 8
  %63 = load ptr, ptr %7, align 8
  %64 = load ptr, ptr %8, align 8
  call void @dis_field_addr(ptr noundef %62, ptr noundef %63, ptr noundef %64, ptr noundef %9, ptr noundef @.str.619)
  %65 = load ptr, ptr %6, align 8
  %66 = load i32, ptr %9, align 4
  %67 = call zeroext i8 @tvb_get_uint8(ptr noundef %65, i32 noundef %66)
  store i8 %67, ptr %13, align 1
  %68 = load ptr, ptr %6, align 8
  %69 = load ptr, ptr %8, align 8
  %70 = load i32, ptr %9, align 4
  %71 = load i8, ptr %13, align 1
  call void @dis_field_pid(ptr noundef %68, ptr noundef %69, i32 noundef %70, i8 noundef zeroext %71)
  %72 = load i32, ptr %9, align 4
  %73 = add i32 %72, 1
  store i32 %73, ptr %9, align 4
  %74 = load ptr, ptr %6, align 8
  %75 = load i32, ptr %9, align 4
  %76 = call zeroext i8 @tvb_get_uint8(ptr noundef %74, i32 noundef %75)
  store i8 %76, ptr %13, align 1
  %77 = load ptr, ptr %6, align 8
  %78 = load ptr, ptr %8, align 8
  %79 = load i32, ptr %9, align 4
  %80 = load i8, ptr %13, align 1
  call void @dis_field_dcs(ptr noundef %77, ptr noundef %78, i32 noundef %79, i8 noundef zeroext %80, ptr noundef %15, ptr noundef %16)
  %81 = load i32, ptr %9, align 4
  %82 = add i32 %81, 1
  store i32 %82, ptr %9, align 4
  %83 = load ptr, ptr %6, align 8
  %84 = load ptr, ptr %7, align 8
  %85 = load ptr, ptr %8, align 8
  call void @dis_field_scts(ptr noundef %83, ptr noundef %84, ptr noundef %85, ptr noundef %9)
  %86 = load ptr, ptr %6, align 8
  %87 = load i32, ptr %9, align 4
  %88 = call zeroext i8 @tvb_get_uint8(ptr noundef %86, i32 noundef %87)
  store i8 %88, ptr %13, align 1
  %89 = load i8, ptr %13, align 1
  store i8 %89, ptr %14, align 1
  %90 = load ptr, ptr %8, align 8
  %91 = load i32, ptr @hf_gsm_sms_tp_user_data_length, align 4
  %92 = load ptr, ptr %6, align 8
  %93 = load i32, ptr %9, align 4
  %94 = load i8, ptr %13, align 1
  %95 = zext i8 %94 to i32
  %96 = load i8, ptr %13, align 1
  %97 = zext i8 %96 to i32
  %98 = load i8, ptr %13, align 1
  %99 = zext i8 %98 to i32
  %100 = icmp ne i32 %99, 0
  %101 = select i1 %100, ptr @.str.621, ptr @.str.622
  %102 = call ptr (ptr, i32, ptr, i32, i32, i32, ptr, ...) @proto_tree_add_uint_format_value(ptr noundef %90, i32 noundef %91, ptr noundef %92, i32 noundef %93, i32 noundef 1, i32 noundef %95, ptr noundef @.str.620, i32 noundef %97, ptr noundef %101)
  %103 = load i8, ptr %14, align 1
  %104 = zext i8 %103 to i32
  %105 = icmp sgt i32 %104, 0
  br i1 %105, label %106, label %125

106:                                              ; preds = %5
  %107 = load i32, ptr %9, align 4
  %108 = add i32 %107, 1
  store i32 %108, ptr %9, align 4
  %109 = load ptr, ptr %6, align 8
  %110 = load ptr, ptr %7, align 8
  %111 = load ptr, ptr %8, align 8
  %112 = load i32, ptr %9, align 4
  %113 = load i32, ptr %12, align 4
  %114 = load i32, ptr %9, align 4
  %115 = load i32, ptr %11, align 4
  %116 = sub i32 %114, %115
  %117 = sub i32 %113, %116
  %118 = load i8, ptr %17, align 1, !range !9, !noundef !10
  %119 = trunc i8 %118 to i1
  %120 = load i8, ptr %14, align 1
  %121 = load i32, ptr %15, align 4
  %122 = load i8, ptr %16, align 1, !range !9, !noundef !10
  %123 = trunc i8 %122 to i1
  %124 = load ptr, ptr %10, align 8
  call void @dis_field_ud(ptr noundef %109, ptr noundef %110, ptr noundef %111, i32 noundef %112, i32 noundef %117, i1 noundef zeroext %119, i8 noundef zeroext %120, i32 noundef %121, i1 noundef zeroext %123, ptr noundef %124)
  br label %125

125:                                              ; preds = %106, %5
  call void @llvm.lifetime.end.p0(i64 1, ptr %17) #13
  call void @llvm.lifetime.end.p0(i64 1, ptr %16) #13
  call void @llvm.lifetime.end.p0(i64 4, ptr %15) #13
  call void @llvm.lifetime.end.p0(i64 1, ptr %14) #13
  call void @llvm.lifetime.end.p0(i64 1, ptr %13) #13
  call void @llvm.lifetime.end.p0(i64 4, ptr %12) #13
  call void @llvm.lifetime.end.p0(i64 4, ptr %11) #13
  ret void
}