; Function Attrs: null_pointer_is_valid sspstrong uwtable
define internal void @dis_msg_deliver(ptr noundef %0, ptr noundef %1, ptr noundef %2, i32 noundef %3, ptr noundef captures(address_is_null) %4) #0 {
  %6 = alloca i32, align 4
  %7 = alloca i32, align 4
  %8 = alloca i8, align 1
  call void @llvm.lifetime.start.p0(i64 4, ptr nonnull %7) #10
  call void @llvm.lifetime.start.p0(i64 1, ptr nonnull %8) #10
  %9 = tail call i32 @tvb_reported_length_remaining(ptr noundef %0, i32 noundef %3)
  %10 = tail call zeroext i8 @tvb_get_uint8(ptr noundef %0, i32 noundef %3)
  %11 = load i32, ptr @hf_gsm_sms_tp_rp, align 4
  %12 = tail call ptr @proto_tree_add_item(ptr noundef %2, i32 noundef %11, ptr noundef %0, i32 noundef %3, i32 noundef 1, i32 noundef 0)
  %13 = load i32, ptr @hf_gsm_sms_tp_udhi, align 4
  %14 = tail call ptr @proto_tree_add_item(ptr noundef %2, i32 noundef %13, ptr noundef %0, i32 noundef %3, i32 noundef 1, i32 noundef 0)
  %15 = load i32, ptr @hf_gsm_sms_tp_sri, align 4
  %16 = tail call ptr @proto_tree_add_item(ptr noundef %2, i32 noundef %15, ptr noundef %0, i32 noundef %3, i32 noundef 1, i32 noundef 0)
  %17 = load i32, ptr @hf_gsm_sms_tp_lp, align 4
  %18 = tail call ptr @proto_tree_add_item(ptr noundef %2, i32 noundef %17, ptr noundef %0, i32 noundef %3, i32 noundef 1, i32 noundef 0)
  %19 = load i32, ptr @hf_gsm_sms_tp_mms, align 4
  %20 = tail call ptr @proto_tree_add_item(ptr noundef %2, i32 noundef %19, ptr noundef %0, i32 noundef %3, i32 noundef 1, i32 noundef 0)
  %21 = load i32, ptr @hf_gsm_sms_tp_mti_down, align 4
  %22 = tail call ptr @proto_tree_add_item(ptr noundef %2, i32 noundef %21, ptr noundef %0, i32 noundef %3, i32 noundef 1, i32 noundef 0)
  %23 = add i32 %3, 1
  store i32 %23, ptr %6, align 4
  call void @dis_field_addr(ptr noundef %0, ptr noundef %1, ptr noundef %2, ptr noundef nonnull %6, ptr noundef nonnull @.str.619)
  %24 = load i32, ptr %6, align 4
  %25 = tail call zeroext i8 @tvb_get_uint8(ptr noundef %0, i32 noundef %24)
  tail call fastcc void @dis_field_pid(ptr noundef %0, ptr noundef %2, i32 noundef %24, i8 noundef zeroext %25)
  %26 = add i32 %24, 1
  %27 = tail call zeroext i8 @tvb_get_uint8(ptr noundef %0, i32 noundef %26)
  call fastcc void @dis_field_dcs(ptr noundef %0, ptr noundef %2, i32 noundef %26, i8 noundef zeroext %27, ptr noundef nonnull %7, ptr noundef nonnull %8)
  %28 = add i32 %24, 2
  store i32 %28, ptr %6, align 4
  call fastcc void @dis_field_scts(ptr noundef %0, ptr noundef %1, ptr noundef %2, ptr noundef nonnull %6)
  %29 = load i32, ptr %6, align 4
  %30 = tail call zeroext i8 @tvb_get_uint8(ptr noundef %0, i32 noundef %29)
  %31 = load i32, ptr @hf_gsm_sms_tp_user_data_length, align 4
  %32 = zext i8 %30 to i32
  %.not = icmp eq i8 %30, 0
  %33 = select i1 %.not, ptr @.str.622, ptr @.str.621
  %34 = tail call ptr (ptr, i32, ptr, i32, i32, i32, ptr, ...) @proto_tree_add_uint_format_value(ptr noundef %2, i32 noundef %31, ptr noundef %0, i32 noundef %29, i32 noundef 1, i32 noundef %32, ptr noundef nonnull @.str.620, i32 noundef %32, ptr noundef nonnull %33)
  br i1 %.not, label %43, label %35

35:                                               ; preds = %5
  %36 = and i8 %10, 64
  %37 = icmp ne i8 %36, 0
  %38 = add i32 %29, 1
  %.neg45 = xor i32 %29, -1
  %.neg = add i32 %9, %3
  %39 = add i32 %.neg, %.neg45
  %40 = load i32, ptr %7, align 4
  %41 = load i8, ptr %8, align 1, !range !9, !noundef !10
  %42 = trunc nuw i8 %41 to i1
  tail call fastcc void @dis_field_ud(ptr noundef %0, ptr noundef %1, ptr noundef %2, i32 noundef %38, i32 noundef %39, i1 noundef zeroext %37, i8 noundef zeroext %30, i32 noundef %40, i1 noundef zeroext %42, ptr noundef %4)
  br label %43

43:                                               ; preds = %35, %5
  call void @llvm.lifetime.end.p0(i64 1, ptr nonnull %8) #10
  call void @llvm.lifetime.end.p0(i64 4, ptr nonnull %7) #10
  ret void
}